target datalayout = "e-m:e-p270:32:32-p271:32:32-p272:64:64-i64:64-i128:128-f80:128-n8:16:32:64-S128"
target triple = "x86_64-unknown-linux-gnu"

%"class.net::QuicHeaderList" = type { %"class.net::SpdyHeadersHandlerInterface", %"class.std::deque", i64 }
%"class.net::SpdyHeadersHandlerInterface" = type { ptr }
%"class.std::deque" = type { %"class.std::_Deque_base" }
%"class.std::_Deque_base" = type { %"struct.std::_Deque_base<std::pair<std::__cxx11::basic_string<char>, std::__cxx11::basic_string<char>>, std::allocator<std::pair<std::__cxx11::basic_string<char>, std::__cxx11::basic_string<char>>>>::_Deque_impl" }
%"struct.std::_Deque_base<std::pair<std::__cxx11::basic_string<char>, std::__cxx11::basic_string<char>>, std::allocator<std::pair<std::__cxx11::basic_string<char>, std::__cxx11::basic_string<char>>>>::_Deque_impl" = type { %"struct.std::_Deque_base<std::pair<std::__cxx11::basic_string<char>, std::__cxx11::basic_string<char>>, std::allocator<std::pair<std::__cxx11::basic_string<char>, std::__cxx11::basic_string<char>>>>::_Deque_impl_data" }
%"struct.std::_Deque_base<std::pair<std::__cxx11::basic_string<char>, std::__cxx11::basic_string<char>>, std::allocator<std::pair<std::__cxx11::basic_string<char>, std::__cxx11::basic_string<char>>>>::_Deque_impl_data" = type { ptr, i64, %"struct.std::_Deque_iterator", %"struct.std::_Deque_iterator" }
%"struct.std::_Deque_iterator" = type { ptr, ptr, ptr, ptr }
%"class.std::__cxx11::basic_string" = type { %"struct.std::__cxx11::basic_string<char>::_Alloc_hider", i64, %union.anon }
%"struct.std::__cxx11::basic_string<char>::_Alloc_hider" = type { ptr }
%union.anon = type { i64, [8 x i8] }
%"class.base::BasicStringPiece" = type { ptr, i64 }
%"struct.std::pair" = type { %"class.std::__cxx11::basic_string", %"class.std::__cxx11::basic_string" }

; Function Attrs: mustprogress nounwind uwtable
define linkonce_odr dso_local noundef i64 @_ZSt16__deque_buf_sizem(i64 noundef %__size) #1 comdat {
entry:
  %__size.addr = alloca i64, align 8
  store i64 %__size, ptr %__size.addr, align 8
  %0 = load i64, ptr %__size.addr, align 8
  %cmp = icmp ult i64 %0, 512
  br i1 %cmp, label %cond.true, label %cond.false

cond.true:                                        ; preds = %entry
  %1 = load i64, ptr %__size.addr, align 8
  %div = udiv i64 512, %1
  br label %cond.end

cond.false:                                       ; preds = %entry
  br label %cond.end

cond.end:                                         ; preds = %cond.false, %cond.true
  %cond = phi i64 [ %div, %cond.true ], [ 1, %cond.false ]
  ret i64 %cond
}

; Function Attrs: mustprogress nounwind uwtable
define linkonce_odr dso_local noundef i64 @_ZNSt15_Deque_iteratorISt4pairINSt7__cxx1112basic_stringIcSt11char_traitsIcESaIcEEES6_ERS7_PS7_E14_S_buffer_sizeEv() #1 comdat align 2 {
entry:
  %call = call noundef i64 @_ZSt16__deque_buf_sizem(i64 noundef 64)
  ret i64 %call
}

; Function Attrs: mustprogress nounwind uwtable
define linkonce_odr dso_local void @_ZNSt15_Deque_iteratorISt4pairINSt7__cxx1112basic_stringIcSt11char_traitsIcESaIcEEES6_ERS7_PS7_E11_M_set_nodeEPS9_(ptr noundef nonnull align 8 dereferenceable(32) %this, ptr noundef %__new_node) #1 comdat align 2 {
entry:
  %this.addr = alloca ptr, align 8
  %__new_node.addr = alloca ptr, align 8
  store ptr %this, ptr %this.addr, align 8
  store ptr %__new_node, ptr %__new_node.addr, align 8
  %this1 = load ptr, ptr %this.addr, align 8
  %0 = load ptr, ptr %__new_node.addr, align 8
  %_M_node = getelementptr inbounds %"struct.std::_Deque_iterator", ptr %this1, i32 0, i32 3
  store ptr %0, ptr %_M_node, align 8
  %1 = load ptr, ptr %__new_node.addr, align 8
  %2 = load ptr, ptr %1, align 8
  %_M_first = getelementptr inbounds %"struct.std::_Deque_iterator", ptr %this1, i32 0, i32 1
  store ptr %2, ptr %_M_first, align 8
  %_M_first2 = getelementptr inbounds %"struct.std::_Deque_iterator", ptr %this1, i32 0, i32 1
  %3 = load ptr, ptr %_M_first2, align 8
  %call = call noundef i64 @_ZNSt15_Deque_iteratorISt4pairINSt7__cxx1112basic_stringIcSt11char_traitsIcESaIcEEES6_ERS7_PS7_E14_S_buffer_sizeEv() #11
  %add.ptr = getelementptr inbounds %"struct.std::pair", ptr %3, i64 %call
  %_M_last = getelementptr inbounds %"struct.std::_Deque_iterator", ptr %this1, i32 0, i32 2
  store ptr %add.ptr, ptr %_M_last, align 8
  ret void
}

; Function Attrs: mustprogress nounwind uwtable
define linkonce_odr dso_local void @_ZNSt15_Deque_iteratorISt4pairINSt7__cxx1112basic_stringIcSt11char_traitsIcESaIcEEES6_ERS7_PS7_EC2ERKSA_(ptr noundef nonnull align 8 dereferenceable(32) %this, ptr noundef nonnull align 8 dereferenceable(32) %__x) unnamed_addr #1 comdat align 2 {
entry:
  %this.addr = alloca ptr, align 8
  %__x.addr = alloca ptr, align 8
  store ptr %this, ptr %this.addr, align 8
  store ptr %__x, ptr %__x.addr, align 8
  %this1 = load ptr, ptr %this.addr, align 8
  %_M_cur = getelementptr inbounds %"struct.std::_Deque_iterator", ptr %this1, i32 0, i32 0
  %0 = load ptr, ptr %__x.addr, align 8
  %_M_cur2 = getelementptr inbounds %"struct.std::_Deque_iterator", ptr %0, i32 0, i32 0
  %1 = load ptr, ptr %_M_cur2, align 8
  store ptr %1, ptr %_M_cur, align 8
  %_M_first = getelementptr inbounds %"struct.std::_Deque_iterator", ptr %this1, i32 0, i32 1
  %2 = load ptr, ptr %__x.addr, align 8
  %_M_first3 = getelementptr inbounds %"struct.std::_Deque_iterator", ptr %2, i32 0, i32 1
  %3 = load ptr, ptr %_M_first3, align 8
  store ptr %3, ptr %_M_first, align 8
  %_M_last = getelementptr inbounds %"struct.std::_Deque_iterator", ptr %this1, i32 0, i32 2
  %4 = load ptr, ptr %__x.addr, align 8
  %_M_last4 = getelementptr inbounds %"struct.std::_Deque_iterator", ptr %4, i32 0, i32 2
  %5 = load ptr, ptr %_M_last4, align 8
  store ptr %5, ptr %_M_last, align 8
  %_M_node = getelementptr inbounds %"struct.std::_Deque_iterator", ptr %this1, i32 0, i32 3
  %6 = load ptr, ptr %__x.addr, align 8
  %_M_node5 = getelementptr inbounds %"struct.std::_Deque_iterator", ptr %6, i32 0, i32 3
  %7 = load ptr, ptr %_M_node5, align 8
  store ptr %7, ptr %_M_node, align 8
  ret void
}

; Function Attrs: mustprogress nounwind uwtable
define linkonce_odr dso_local void @_ZNSt4pairINSt7__cxx1112basic_stringIcSt11char_traitsIcESaIcEEES5_EC2IS5_S5_TnNSt9enable_ifIXaaclsr5_PCCPE22_MoveConstructiblePairIT_T0_EEclsr5_PCCPE30_ImplicitlyMoveConvertiblePairIS9_SA_EEEbE4typeELb1EEEOS9_OSA_(ptr noundef nonnull align 8 dereferenceable(64) %this, ptr noundef nonnull align 8 dereferenceable(32) %__x, ptr noundef nonnull align 8 dereferenceable(32) %__y) unnamed_addr #1 comdat align 2 {
entry:
  %this.addr = alloca ptr, align 8
  %__x.addr = alloca ptr, align 8
  %__y.addr = alloca ptr, align 8
  store ptr %this, ptr %this.addr, align 8
  store ptr %__x, ptr %__x.addr, align 8
  store ptr %__y, ptr %__y.addr, align 8
  %this1 = load ptr, ptr %this.addr, align 8
  %first = getelementptr inbounds %"struct.std::pair", ptr %this1, i32 0, i32 0
  %0 = load ptr, ptr %__x.addr, align 8
  call void @_ZNSt7__cxx1112basic_stringIcSt11char_traitsIcESaIcEEC1EOS4_(ptr noundef nonnull align 8 dereferenceable(32) %first, ptr noundef nonnull align 8 dereferenceable(32) %0) #11
  %second = getelementptr inbounds %"struct.std::pair", ptr %this1, i32 0, i32 1
  %1 = load ptr, ptr %__y.addr, align 8
  call void @_ZNSt7__cxx1112basic_stringIcSt11char_traitsIcESaIcEEC1EOS4_(ptr noundef nonnull align 8 dereferenceable(32) %second, ptr noundef nonnull align 8 dereferenceable(32) %1) #11
  ret void
}

; Function Attrs: mustprogress nounwind uwtable
define linkonce_odr dso_local noundef nonnull align 8 dereferenceable(64) ptr @_ZNKSt15_Deque_iteratorISt4pairINSt7__cxx1112basic_stringIcSt11char_traitsIcESaIcEEES6_ERS7_PS7_EdeEv(ptr noundef nonnull align 8 dereferenceable(32) %this) #1 comdat align 2 {
entry:
  %this.addr = alloca ptr, align 8
  store ptr %this, ptr %this.addr, align 8
  %this1 = load ptr, ptr %this.addr, align 8
  %_M_cur = getelementptr inbounds %"struct.std::_Deque_iterator", ptr %this1, i32 0, i32 0
  %0 = load ptr, ptr %_M_cur, align 8
  ret ptr %0
}

; Function Attrs: mustprogress nounwind uwtable
define linkonce_odr dso_local noundef nonnull align 8 dereferenceable(32) ptr @_ZNSt15_Deque_iteratorISt4pairINSt7__cxx1112basic_stringIcSt11char_traitsIcESaIcEEES6_ERS7_PS7_EmmEv(ptr noundef nonnull align 8 dereferenceable(32) %this) #1 comdat align 2 {
entry:
  %this.addr = alloca ptr, align 8
  store ptr %this, ptr %this.addr, align 8
  %this1 = load ptr, ptr %this.addr, align 8
  %_M_cur = getelementptr inbounds %"struct.std::_Deque_iterator", ptr %this1, i32 0, i32 0
  %0 = load ptr, ptr %_M_cur, align 8
  %_M_first = getelementptr inbounds %"struct.std::_Deque_iterator", ptr %this1, i32 0, i32 1
  %1 = load ptr, ptr %_M_first, align 8
  %cmp = icmp eq ptr %0, %1
  br i1 %cmp, label %if.then, label %if.end

if.then:                                          ; preds = %entry
  %_M_node = getelementptr inbounds %"struct.std::_Deque_iterator", ptr %this1, i32 0, i32 3
  %2 = load ptr, ptr %_M_node, align 8
  %add.ptr = getelementptr inbounds ptr, ptr %2, i64 -1
  call void @_ZNSt15_Deque_iteratorISt4pairINSt7__cxx1112basic_stringIcSt11char_traitsIcESaIcEEES6_ERS7_PS7_E11_M_set_nodeEPS9_(ptr noundef nonnull align 8 dereferenceable(32) %this1, ptr noundef %add.ptr) #11
  %_M_last = getelementptr inbounds %"struct.std::_Deque_iterator", ptr %this1, i32 0, i32 2
  %3 = load ptr, ptr %_M_last, align 8
  %_M_cur2 = getelementptr inbounds %"struct.std::_Deque_iterator", ptr %this1, i32 0, i32 0
  store ptr %3, ptr %_M_cur2, align 8
  br label %if.end

if.end:                                           ; preds = %if.then, %entry
  %_M_cur3 = getelementptr inbounds %"struct.std::_Deque_iterator", ptr %this1, i32 0, i32 0
  %4 = load ptr, ptr %_M_cur3, align 8
  %incdec.ptr = getelementptr inbounds %"struct.std::pair", ptr %4, i32 -1
  store ptr %incdec.ptr, ptr %_M_cur3, align 8
  ret ptr %this1
}

; Function Attrs: mustprogress nounwind uwtable
define linkonce_odr dso_local void @_ZNSt5dequeISt4pairINSt7__cxx1112basic_stringIcSt11char_traitsIcESaIcEEES6_ESaIS7_EE3endEv(ptr noalias sret(%"struct.std::_Deque_iterator") align 8 %agg.result, ptr noundef nonnull align 8 dereferenceable(80) %this) #1 comdat align 2 {
entry:
  %result.ptr = alloca ptr, align 8
  %this.addr = alloca ptr, align 8
  store ptr %agg.result, ptr %result.ptr, align 8
  store ptr %this, ptr %this.addr, align 8
  %this1 = load ptr, ptr %this.addr, align 8
  %_M_impl = getelementptr inbounds %"class.std::_Deque_base", ptr %this1, i32 0, i32 0
  %_M_finish = getelementptr inbounds %"struct.std::_Deque_base<std::pair<std::__cxx11::basic_string<char>, std::__cxx11::basic_string<char>>, std::allocator<std::pair<std::__cxx11::basic_string<char>, std::__cxx11::basic_string<char>>>>::_Deque_impl_data", ptr %_M_impl, i32 0, i32 3
  call void @_ZNSt15_Deque_iteratorISt4pairINSt7__cxx1112basic_stringIcSt11char_traitsIcESaIcEEES6_ERS7_PS7_EC2ERKSA_(ptr noundef nonnull align 8 dereferenceable(32) %agg.result, ptr noundef nonnull align 8 dereferenceable(32) %_M_finish) #11
  ret void
}

; Function Attrs: mustprogress uwtable
define linkonce_odr dso_local void @_ZNSt15__new_allocatorISt4pairINSt7__cxx1112basic_stringIcSt11char_traitsIcESaIcEEES6_EE9constructIS7_JS6_S6_EEEvPT_DpOT0_(ptr noundef nonnull align 1 dereferenceable(1) %this, ptr noundef %__p, ptr noundef nonnull align 8 dereferenceable(32) %__args, ptr noundef nonnull align 8 dereferenceable(32) %__args1) #0 comdat align 2 {
entry:
  %this.addr = alloca ptr, align 8
  %__p.addr = alloca ptr, align 8
  %__args.addr = alloca ptr, align 8
  %__args.addr2 = alloca ptr, align 8
  store ptr %this, ptr %this.addr, align 8
  store ptr %__p, ptr %__p.addr, align 8
  store ptr %__args, ptr %__args.addr, align 8
  store ptr %__args1, ptr %__args.addr2, align 8
  %0 = load ptr, ptr %__p.addr, align 8
  %1 = load ptr, ptr %__args.addr, align 8
  %2 = load ptr, ptr %__args.addr2, align 8
  call void @_ZNSt4pairINSt7__cxx1112basic_stringIcSt11char_traitsIcESaIcEEES5_EC2IS5_S5_TnNSt9enable_ifIXaaclsr5_PCCPE22_MoveConstructiblePairIT_T0_EEclsr5_PCCPE30_ImplicitlyMoveConvertiblePairIS9_SA_EEEbE4typeELb1EEEOS9_OSA_(ptr noundef nonnull align 8 dereferenceable(64) %0, ptr noundef nonnull align 8 dereferenceable(32) %1, ptr noundef nonnull align 8 dereferenceable(32) %2)
  ret void
}

; Function Attrs: mustprogress nounwind uwtable
define linkonce_odr dso_local noundef nonnull align 8 dereferenceable(64) ptr @_ZNSt5dequeISt4pairINSt7__cxx1112basic_stringIcSt11char_traitsIcESaIcEEES6_ESaIS7_EE4backEv(ptr noundef nonnull align 8 dereferenceable(80) %this) #1 comdat align 2 {
entry:
  %this.addr = alloca ptr, align 8
  %__tmp = alloca %"struct.std::_Deque_iterator", align 8
  store ptr %this, ptr %this.addr, align 8
  %this1 = load ptr, ptr %this.addr, align 8
  call void @_ZNSt5dequeISt4pairINSt7__cxx1112basic_stringIcSt11char_traitsIcESaIcEEES6_ESaIS7_EE3endEv(ptr sret(%"struct.std::_Deque_iterator") align 8 %__tmp, ptr noundef nonnull align 8 dereferenceable(80) %this1) #11
  %call = call noundef nonnull align 8 dereferenceable(32) ptr @_ZNSt15_Deque_iteratorISt4pairINSt7__cxx1112basic_stringIcSt11char_traitsIcESaIcEEES6_ERS7_PS7_EmmEv(ptr noundef nonnull align 8 dereferenceable(32) %__tmp) #11
  %call2 = call noundef nonnull align 8 dereferenceable(64) ptr @_ZNKSt15_Deque_iteratorISt4pairINSt7__cxx1112basic_stringIcSt11char_traitsIcESaIcEEES6_ERS7_PS7_EdeEv(ptr noundef nonnull align 8 dereferenceable(32) %__tmp) #11
  ret ptr %call2
}

; Function Attrs: mustprogress uwtable
define linkonce_odr dso_local void @_ZNSt16allocator_traitsISaISt4pairINSt7__cxx1112basic_stringIcSt11char_traitsIcESaIcEEES6_EEE9constructIS7_JS6_S6_EEEvRS8_PT_DpOT0_(ptr noundef nonnull align 1 dereferenceable(1) %__a, ptr noundef %__p, ptr noundef nonnull align 8 dereferenceable(32) %__args, ptr noundef nonnull align 8 dereferenceable(32) %__args1) #0 comdat align 2 {
entry:
  %__a.addr = alloca ptr, align 8
  %__p.addr = alloca ptr, align 8
  %__args.addr = alloca ptr, align 8
  %__args.addr2 = alloca ptr, align 8
  store ptr %__a, ptr %__a.addr, align 8
  store ptr %__p, ptr %__p.addr, align 8
  store ptr %__args, ptr %__args.addr, align 8
  store ptr %__args1, ptr %__args.addr2, align 8
  %0 = load ptr, ptr %__a.addr, align 8
  %1 = load ptr, ptr %__p.addr, align 8
  %2 = load ptr, ptr %__args.addr, align 8
  %3 = load ptr, ptr %__args.addr2, align 8
  call void @_ZNSt15__new_allocatorISt4pairINSt7__cxx1112basic_stringIcSt11char_traitsIcESaIcEEES6_EE9constructIS7_JS6_S6_EEEvPT_DpOT0_(ptr noundef nonnull align 1 dereferenceable(1) %0, ptr noundef %1, ptr noundef nonnull align 8 dereferenceable(32) %2, ptr noundef nonnull align 8 dereferenceable(32) %3)
  ret void
}

; Function Attrs: mustprogress uwtable
define linkonce_odr dso_local noundef nonnull align 8 dereferenceable(64) ptr @_ZNSt5dequeISt4pairINSt7__cxx1112basic_stringIcSt11char_traitsIcESaIcEEES6_ESaIS7_EE12emplace_backIJS6_S6_EEERS7_DpOT_(ptr noundef nonnull align 8 dereferenceable(80) %this, ptr noundef nonnull align 8 dereferenceable(32) %__args, ptr noundef nonnull align 8 dereferenceable(32) %__args1) #0 comdat align 2 {
entry:
  %this.addr = alloca ptr, align 8
  %__args.addr = alloca ptr, align 8
  %__args.addr2 = alloca ptr, align 8
  store ptr %this, ptr %this.addr, align 8
  store ptr %__args, ptr %__args.addr, align 8
  store ptr %__args1, ptr %__args.addr2, align 8
  %this3 = load ptr, ptr %this.addr, align 8
  %_M_impl = getelementptr inbounds %"class.std::_Deque_base", ptr %this3, i32 0, i32 0
  %_M_finish = getelementptr inbounds %"struct.std::_Deque_base<std::pair<std::__cxx11::basic_string<char>, std::__cxx11::basic_string<char>>, std::allocator<std::pair<std::__cxx11::basic_string<char>, std::__cxx11::basic_string<char>>>>::_Deque_impl_data", ptr %_M_impl, i32 0, i32 3
  %_M_cur = getelementptr inbounds %"struct.std::_Deque_iterator", ptr %_M_finish, i32 0, i32 0
  %0 = load ptr, ptr %_M_cur, align 8
  %_M_impl4 = getelementptr inbounds %"class.std::_Deque_base", ptr %this3, i32 0, i32 0
  %_M_finish5 = getelementptr inbounds %"struct.std::_Deque_base<std::pair<std::__cxx11::basic_string<char>, std::__cxx11::basic_string<char>>, std::allocator<std::pair<std::__cxx11::basic_string<char>, std::__cxx11::basic_string<char>>>>::_Deque_impl_data", ptr %_M_impl4, i32 0, i32 3
  %_M_last = getelementptr inbounds %"struct.std::_Deque_iterator", ptr %_M_finish5, i32 0, i32 2
  %1 = load ptr, ptr %_M_last, align 8
  %add.ptr = getelementptr inbounds %"struct.std::pair", ptr %1, i64 -1
  %cmp = icmp ne ptr %0, %add.ptr
  br i1 %cmp, label %if.then, label %if.else

if.then:                                          ; preds = %entry
  %_M_impl6 = getelementptr inbounds %"class.std::_Deque_base", ptr %this3, i32 0, i32 0
  %_M_impl7 = getelementptr inbounds %"class.std::_Deque_base", ptr %this3, i32 0, i32 0
  %_M_finish8 = getelementptr inbounds %"struct.std::_Deque_base<std::pair<std::__cxx11::basic_string<char>, std::__cxx11::basic_string<char>>, std::allocator<std::pair<std::__cxx11::basic_string<char>, std::__cxx11::basic_string<char>>>>::_Deque_impl_data", ptr %_M_impl7, i32 0, i32 3
  %_M_cur9 = getelementptr inbounds %"struct.std::_Deque_iterator", ptr %_M_finish8, i32 0, i32 0
  %2 = load ptr, ptr %_M_cur9, align 8
  %3 = load ptr, ptr %__args.addr, align 8
  %4 = load ptr, ptr %__args.addr2, align 8
  call void @_ZNSt16allocator_traitsISaISt4pairINSt7__cxx1112basic_stringIcSt11char_traitsIcESaIcEEES6_EEE9constructIS7_JS6_S6_EEEvRS8_PT_DpOT0_(ptr noundef nonnull align 1 dereferenceable(1) %_M_impl6, ptr noundef %2, ptr noundef nonnull align 8 dereferenceable(32) %3, ptr noundef nonnull align 8 dereferenceable(32) %4)
  %_M_impl10 = getelementptr inbounds %"class.std::_Deque_base", ptr %this3, i32 0, i32 0
  %_M_finish11 = getelementptr inbounds %"struct.std::_Deque_base<std::pair<std::__cxx11::basic_string<char>, std::__cxx11::basic_string<char>>, std::allocator<std::pair<std::__cxx11::basic_string<char>, std::__cxx11::basic_string<char>>>>::_Deque_impl_data", ptr %_M_impl10, i32 0, i32 3
  %_M_cur12 = getelementptr inbounds %"struct.std::_Deque_iterator", ptr %_M_finish11, i32 0, i32 0
  %5 = load ptr, ptr %_M_cur12, align 8
  %incdec.ptr = getelementptr inbounds %"struct.std::pair", ptr %5, i32 1
  store ptr %incdec.ptr, ptr %_M_cur12, align 8
  br label %if.end

if.else:                                          ; preds = %entry
  %6 = load ptr, ptr %__args.addr, align 8
  %7 = load ptr, ptr %__args.addr2, align 8
  call void @_ZNSt5dequeISt4pairINSt7__cxx1112basic_stringIcSt11char_traitsIcESaIcEEES6_ESaIS7_EE16_M_push_back_auxIJS6_S6_EEEvDpOT_(ptr noundef nonnull align 8 dereferenceable(80) %this3, ptr noundef nonnull align 8 dereferenceable(32) %6, ptr noundef nonnull align 8 dereferenceable(32) %7)
  br label %if.end

if.end:                                           ; preds = %if.else, %if.then
  %call = call noundef nonnull align 8 dereferenceable(64) ptr @_ZNSt5dequeISt4pairINSt7__cxx1112basic_stringIcSt11char_traitsIcESaIcEEES6_ESaIS7_EE4backEv(ptr noundef nonnull align 8 dereferenceable(80) %this3) #11
  ret ptr %call
}

; Function Attrs: mustprogress uwtable
define dso_local void @_ZN3net14QuicHeaderList8OnHeaderEN4base16BasicStringPieceINSt7__cxx1112basic_stringIcSt11char_traitsIcESaIcEEEEES9_(ptr noundef nonnull align 8 dereferenceable(96) %this, ptr %name.coerce0, i64 %name.coerce1, ptr %value.coerce0, i64 %value.coerce1) unnamed_addr #0 align 2 personality ptr @__gxx_personality_v0 {
entry:
  %name = alloca %"class.base::BasicStringPiece", align 8
  %value = alloca %"class.base::BasicStringPiece", align 8
  %this.addr = alloca ptr, align 8
  %ref.tmp = alloca %"class.std::__cxx11::basic_string", align 8
  %ref.tmp2 = alloca %"class.std::__cxx11::basic_string", align 8
  %exn.slot = alloca ptr, align 8
  %ehselector.slot = alloca i32, align 4
  %0 = getelementptr inbounds { ptr, i64 }, ptr %name, i32 0, i32 0
  store ptr %name.coerce0, ptr %0, align 8
  %1 = getelementptr inbounds { ptr, i64 }, ptr %name, i32 0, i32 1
  store i64 %name.coerce1, ptr %1, align 8
  %2 = getelementptr inbounds { ptr, i64 }, ptr %value, i32 0, i32 0
  store ptr %value.coerce0, ptr %2, align 8
  %3 = getelementptr inbounds { ptr, i64 }, ptr %value, i32 0, i32 1
  store i64 %value.coerce1, ptr %3, align 8
  store ptr %this, ptr %this.addr, align 8
  %this1 = load ptr, ptr %this.addr, align 8
  %header_list_ = getelementptr inbounds %"class.net::QuicHeaderList", ptr %this1, i32 0, i32 1
  call void @_ZNK4base16BasicStringPieceINSt7__cxx1112basic_stringIcSt11char_traitsIcESaIcEEEE9as_stringEv(ptr sret(%"class.std::__cxx11::basic_string") align 8 %ref.tmp, ptr noundef nonnull align 8 dereferenceable(16) %name)
  invoke void @_ZNK4base16BasicStringPieceINSt7__cxx1112basic_stringIcSt11char_traitsIcESaIcEEEE9as_stringEv(ptr sret(%"class.std::__cxx11::basic_string") align 8 %ref.tmp2, ptr noundef nonnull align 8 dereferenceable(16) %value)
          to label %invoke.cont unwind label %lpad

invoke.cont:                                      ; preds = %entry
  %call = invoke noundef nonnull align 8 dereferenceable(64) ptr @_ZNSt5dequeISt4pairINSt7__cxx1112basic_stringIcSt11char_traitsIcESaIcEEES6_ESaIS7_EE12emplace_backIJS6_S6_EEERS7_DpOT_(ptr noundef nonnull align 8 dereferenceable(80) %header_list_, ptr noundef nonnull align 8 dereferenceable(32) %ref.tmp, ptr noundef nonnull align 8 dereferenceable(32) %ref.tmp2)
          to label %invoke.cont4 unwind label %lpad3

invoke.cont4:                                     ; preds = %invoke.cont
  call void @_ZNSt7__cxx1112basic_stringIcSt11char_traitsIcESaIcEED1Ev(ptr noundef nonnull align 8 dereferenceable(32) %ref.tmp2) #11
  call void @_ZNSt7__cxx1112basic_stringIcSt11char_traitsIcESaIcEED1Ev(ptr noundef nonnull align 8 dereferenceable(32) %ref.tmp) #11
  ret void

lpad:                                             ; preds = %entry
  %4 = landingpad { ptr, i32 }
          cleanup
  %5 = extractvalue { ptr, i32 } %4, 0
  store ptr %5, ptr %exn.slot, align 8
  %6 = extractvalue { ptr, i32 } %4, 1
  store i32 %6, ptr %ehselector.slot, align 4
  br label %ehcleanup

lpad3:                                            ; preds = %invoke.cont
  %7 = landingpad { ptr, i32 }
          cleanup
  %8 = extractvalue { ptr, i32 } %7, 0
  store ptr %8, ptr %exn.slot, align 8
  %9 = extractvalue { ptr, i32 } %7, 1
  store i32 %9, ptr %ehselector.slot, align 4
  call void @_ZNSt7__cxx1112basic_stringIcSt11char_traitsIcESaIcEED1Ev(ptr noundef nonnull align 8 dereferenceable(32) %ref.tmp2) #11
  br label %ehcleanup

ehcleanup:                                        ; preds = %lpad3, %lpad
  call void @_ZNSt7__cxx1112basic_stringIcSt11char_traitsIcESaIcEED1Ev(ptr noundef nonnull align 8 dereferenceable(32) %ref.tmp) #11
  br label %eh.resume

eh.resume:                                        ; preds = %ehcleanup
  %exn = load ptr, ptr %exn.slot, align 8
  %sel = load i32, ptr %ehselector.slot, align 4
  %lpad.val = insertvalue { ptr, i32 } poison, ptr %exn, 0
  %lpad.val5 = insertvalue { ptr, i32 } %lpad.val, i32 %sel, 1
  resume { ptr, i32 } %lpad.val5
}