; Function Attrs: mustprogress uwtable
define dso_local void @_ZN3net14QuicHeaderList8OnHeaderEN4base16BasicStringPieceINSt7__cxx1112basic_stringIcSt11char_traitsIcESaIcEEEEES9_(ptr noundef nonnull align 8 dereferenceable(96) %this, ptr %name.coerce0, i64 %name.coerce1, ptr %value.coerce0, i64 %value.coerce1) unnamed_addr #0 align 2 personality ptr @__gxx_personality_v0 {
entry:
  %name = alloca %"class.base::BasicStringPiece", align 8
  %value = alloca %"class.base::BasicStringPiece", align 8
  %ref.tmp = alloca %"class.std::__cxx11::basic_string", align 8
  %ref.tmp2 = alloca %"class.std::__cxx11::basic_string", align 8
  store ptr %name.coerce0, ptr %name, align 8
  %0 = getelementptr inbounds i8, ptr %name, i64 8
  store i64 %name.coerce1, ptr %0, align 8
  store ptr %value.coerce0, ptr %value, align 8
  %1 = getelementptr inbounds i8, ptr %value, i64 8
  store i64 %value.coerce1, ptr %1, align 8
  call void @_ZNK4base16BasicStringPieceINSt7__cxx1112basic_stringIcSt11char_traitsIcESaIcEEEE9as_stringEv(ptr nonnull sret(%"class.std::__cxx11::basic_string") align 8 %ref.tmp, ptr noundef nonnull align 8 dereferenceable(16) %name)
  invoke void @_ZNK4base16BasicStringPieceINSt7__cxx1112basic_stringIcSt11char_traitsIcESaIcEEEE9as_stringEv(ptr nonnull sret(%"class.std::__cxx11::basic_string") align 8 %ref.tmp2, ptr noundef nonnull align 8 dereferenceable(16) %value)
          to label %invoke.cont unwind label %lpad

invoke.cont:                                      ; preds = %entry
  %_M_finish.i = getelementptr inbounds i8, ptr %this, i64 56
  %2 = load ptr, ptr %_M_finish.i, align 8
  %_M_last.i = getelementptr inbounds i8, ptr %this, i64 72
  %3 = load ptr, ptr %_M_last.i, align 8
  %add.ptr.i = getelementptr inbounds i8, ptr %3, i64 -64
  %cmp.not.i = icmp eq ptr %2, %add.ptr.i
  br i1 %cmp.not.i, label %if.else.i, label %if.then.i

if.then.i:                                        ; preds = %invoke.cont
  call void @_ZNSt7__cxx1112basic_stringIcSt11char_traitsIcESaIcEEC1EOS4_(ptr noundef nonnull align 8 dereferenceable(32) %2, ptr noundef nonnull align 8 dereferenceable(32) %ref.tmp) #14
  %second.i.i.i.i = getelementptr inbounds i8, ptr %2, i64 32
  call void @_ZNSt7__cxx1112basic_stringIcSt11char_traitsIcESaIcEEC1EOS4_(ptr noundef nonnull align 8 dereferenceable(32) %second.i.i.i.i, ptr noundef nonnull align 8 dereferenceable(32) %ref.tmp2) #14
  %4 = load ptr, ptr %_M_finish.i, align 8
  %incdec.ptr.i = getelementptr inbounds i8, ptr %4, i64 64
  store ptr %incdec.ptr.i, ptr %_M_finish.i, align 8
  br label %if.end.i

if.else.i:                                        ; preds = %invoke.cont
  %header_list_ = getelementptr inbounds i8, ptr %this, i64 8
  invoke void @_ZNSt5dequeISt4pairINSt7__cxx1112basic_stringIcSt11char_traitsIcESaIcEEES6_ESaIS7_EE16_M_push_back_auxIJS6_S6_EEEvDpOT_(ptr noundef nonnull align 8 dereferenceable(80) %header_list_, ptr noundef nonnull align 8 dereferenceable(32) %ref.tmp, ptr noundef nonnull align 8 dereferenceable(32) %ref.tmp2)
          to label %if.end.i unwind label %lpad3

if.end.i:                                         ; preds = %if.else.i, %if.then.i
  call void @_ZNSt7__cxx1112basic_stringIcSt11char_traitsIcESaIcEED1Ev(ptr noundef nonnull align 8 dereferenceable(32) %ref.tmp2) #14
  call void @_ZNSt7__cxx1112basic_stringIcSt11char_traitsIcESaIcEED1Ev(ptr noundef nonnull align 8 dereferenceable(32) %ref.tmp) #14
  ret void

lpad:                                             ; preds = %entry
  %5 = landingpad { ptr, i32 }
          cleanup
  br label %ehcleanup

lpad3:                                            ; preds = %if.else.i
  %6 = landingpad { ptr, i32 }
          cleanup
  call void @_ZNSt7__cxx1112basic_stringIcSt11char_traitsIcESaIcEED1Ev(ptr noundef nonnull align 8 dereferenceable(32) %ref.tmp2) #14
  br label %ehcleanup

ehcleanup:                                        ; preds = %lpad3, %lpad
  %.pn = phi { ptr, i32 } [ %6, %lpad3 ], [ %5, %lpad ]
  call void @_ZNSt7__cxx1112basic_stringIcSt11char_traitsIcESaIcEED1Ev(ptr noundef nonnull align 8 dereferenceable(32) %ref.tmp) #14
  resume { ptr, i32 } %.pn
}